; Function Attrs: nounwind uwtable
define dso_local range(i32 -30, 1) i32 @archive_read_set_passphrase_callback(ptr noundef %0, ptr noundef %1, ptr noundef %2) local_unnamed_addr #0 {
  %4 = tail call i32 @__archive_check_magic(ptr noundef %0, i32 noundef 14594245, i32 noundef 1, ptr noundef nonnull @.str.2) #6
  %.not = icmp eq i32 %4, -30
  br i1 %.not, label %8, label %5

5:                                                ; preds = %3
  %6 = getelementptr inbounds nuw i8, ptr %0, i64 2120
  store ptr %2, ptr %6, align 8, !tbaa !30
  %7 = getelementptr inbounds nuw i8, ptr %0, i64 2128
  store ptr %1, ptr %7, align 8, !tbaa !31
  br label %8

8:                                                ; preds = %3, %5
  %.1 = phi i32 [ 0, %5 ], [ -30, %3 ]
  ret i32 %.1
}